target datalayout = "e-m:e-p270:32:32-p271:32:32-p272:64:64-i64:64-i128:128-f80:128-n8:16:32:64-S128"
target triple = "x86_64-pc-linux-gnu"

%struct.archive_write = type { %struct.archive, i32, i64, i64, ptr, i64, ptr, ptr, ptr, ptr, ptr, i32, i32, ptr, ptr, ptr, ptr, ptr, ptr, ptr, ptr, ptr, ptr, ptr, ptr, ptr, ptr }
%struct.archive = type { i32, i32, ptr, i32, ptr, i32, i32, ptr, %struct.archive_string, ptr, i32, i32, ptr, ptr, i64, i64, i64, i8, i64 }
%struct.archive_string = type { ptr, i64, i64 }
%struct.iso9660 = type { i64, i32, ptr, ptr, %struct.archive_string, i64, i32, %struct.archive_string, %struct.archive_string, ptr, ptr, %struct.anon, %struct.anon.0, %struct.archive_rb_tree, %struct.vdd, %struct.vdd, i32, i32, i32, %struct.archive_string, %struct.archive_string, %struct.archive_string, %struct.archive_string, %struct.archive_string, %struct.archive_string, %struct.archive_string, i32, %struct.anon.1, ptr, i32, [65536 x i8], i64, i32, i64, i64, i64, %struct.anon.2, %struct.iso_option }
%struct.anon = type { ptr, ptr }
%struct.anon.0 = type { ptr, ptr }
%struct.archive_rb_tree = type { ptr, ptr }
%struct.vdd = type { ptr, i32, ptr, i32, i32, i32, i32, i32, i32 }
%struct.anon.1 = type { i8, [64 x i8], i32, ptr, i64, i32, i32, i64, i64, %struct.z_stream_s, i32, i64, i32 }
%struct.z_stream_s = type { ptr, i32, i64, ptr, i32, i64, ptr, ptr, ptr, ptr, ptr, i32, i64, i64 }
%struct.anon.2 = type { %struct.archive_string, ptr, %struct.archive_string, ptr, i8, %struct.archive_string, i8, i8, i16, i16 }
%struct.iso_option = type { i32 }

@.str.57 = private unnamed_addr constant [79 x i8] c"Internal Programming error: iso9660:wb_consume() size=%jd, wbuff_remaining=%jd\00", align 1
@.str.58 = private unnamed_addr constant [30 x i8] c"Can't write to temporary file\00", align 1

; Function Attrs: nounwind uwtable
define internal i32 @wb_consume(ptr noundef %0, i64 noundef %1) #0 {
  %3 = alloca i32, align 4
  %4 = alloca ptr, align 8
  %5 = alloca i64, align 8
  %6 = alloca ptr, align 8
  %7 = alloca i32, align 4
  store ptr %0, ptr %4, align 8, !tbaa !9
  store i64 %1, ptr %5, align 8, !tbaa !154
  call void @llvm.lifetime.start.p0(i64 8, ptr %6) #13
  %8 = load ptr, ptr %4, align 8, !tbaa !9
  %9 = getelementptr inbounds nuw %struct.archive_write, ptr %8, i32 0, i32 15
  %10 = load ptr, ptr %9, align 8, !tbaa !120
  store ptr %10, ptr %6, align 8, !tbaa !22
  %11 = load i64, ptr %5, align 8, !tbaa !154
  %12 = load ptr, ptr %6, align 8, !tbaa !22
  %13 = getelementptr inbounds nuw %struct.iso9660, ptr %12, i32 0, i32 31
  %14 = load i64, ptr %13, align 8, !tbaa !53
  %15 = icmp ugt i64 %11, %14
  br i1 %15, label %21, label %16

16:                                               ; preds = %2
  %17 = load ptr, ptr %6, align 8, !tbaa !22
  %18 = getelementptr inbounds nuw %struct.iso9660, ptr %17, i32 0, i32 31
  %19 = load i64, ptr %18, align 8, !tbaa !53
  %20 = icmp eq i64 %19, 0
  br i1 %20, label %21, label %28

21:                                               ; preds = %16, %2
  %22 = load ptr, ptr %4, align 8, !tbaa !9
  %23 = getelementptr inbounds nuw %struct.archive_write, ptr %22, i32 0, i32 0
  %24 = load i64, ptr %5, align 8, !tbaa !154
  %25 = load ptr, ptr %6, align 8, !tbaa !22
  %26 = getelementptr inbounds nuw %struct.iso9660, ptr %25, i32 0, i32 31
  %27 = load i64, ptr %26, align 8, !tbaa !53
  call void (ptr, i32, ptr, ...) @archive_set_error(ptr noundef %23, i32 noundef -1, ptr noundef @.str.57, i64 noundef %24, i64 noundef %27)
  store i32 -30, ptr %3, align 4
  store i32 1, ptr %7, align 4
  br label %42

28:                                               ; preds = %16
  %29 = load i64, ptr %5, align 8, !tbaa !154
  %30 = load ptr, ptr %6, align 8, !tbaa !22
  %31 = getelementptr inbounds nuw %struct.iso9660, ptr %30, i32 0, i32 31
  %32 = load i64, ptr %31, align 8, !tbaa !53
  %33 = sub i64 %32, %29
  store i64 %33, ptr %31, align 8, !tbaa !53
  %34 = load ptr, ptr %6, align 8, !tbaa !22
  %35 = getelementptr inbounds nuw %struct.iso9660, ptr %34, i32 0, i32 31
  %36 = load i64, ptr %35, align 8, !tbaa !53
  %37 = icmp ult i64 %36, 2048
  br i1 %37, label %38, label %41

38:                                               ; preds = %28
  %39 = load ptr, ptr %4, align 8, !tbaa !9
  %40 = call i32 @wb_write_out(ptr noundef %39)
  store i32 %40, ptr %3, align 4
  store i32 1, ptr %7, align 4
  br label %42

41:                                               ; preds = %28
  store i32 0, ptr %3, align 4
  store i32 1, ptr %7, align 4
  br label %42

42:                                               ; preds = %41, %38, %21
  call void @llvm.lifetime.end.p0(i64 8, ptr %6) #13
  %43 = load i32, ptr %3, align 4
  ret i32 %43
}

; Function Attrs: inlinehint nounwind uwtable
define internal ptr @wb_buffptr(ptr noundef %0) #10 {
  %2 = alloca ptr, align 8
  %3 = alloca ptr, align 8
  store ptr %0, ptr %2, align 8, !tbaa !9
  call void @llvm.lifetime.start.p0(i64 8, ptr %3) #13
  %4 = load ptr, ptr %2, align 8, !tbaa !9
  %5 = getelementptr inbounds nuw %struct.archive_write, ptr %4, i32 0, i32 15
  %6 = load ptr, ptr %5, align 8, !tbaa !120
  store ptr %6, ptr %3, align 8, !tbaa !22
  %7 = load ptr, ptr %3, align 8, !tbaa !22
  %8 = getelementptr inbounds nuw %struct.iso9660, ptr %7, i32 0, i32 30
  %9 = load ptr, ptr %3, align 8, !tbaa !22
  %10 = getelementptr inbounds nuw %struct.iso9660, ptr %9, i32 0, i32 31
  %11 = load i64, ptr %10, align 8, !tbaa !53
  %12 = sub i64 65536, %11
  %13 = getelementptr inbounds nuw [65536 x i8], ptr %8, i64 0, i64 %12
  call void @llvm.lifetime.end.p0(i64 8, ptr %3) #13
  ret ptr %13
}

; Function Attrs: nounwind uwtable
define internal i32 @write_to_temp(ptr noundef %0, ptr noundef %1, i64 noundef %2) #0 {
  %4 = alloca i32, align 4
  %5 = alloca ptr, align 8
  %6 = alloca ptr, align 8
  %7 = alloca i64, align 8
  %8 = alloca ptr, align 8
  %9 = alloca i64, align 8
  %10 = alloca ptr, align 8
  %11 = alloca i32, align 4
  store ptr %0, ptr %5, align 8, !tbaa !9
  store ptr %1, ptr %6, align 8, !tbaa !153
  store i64 %2, ptr %7, align 8, !tbaa !154
  call void @llvm.lifetime.start.p0(i64 8, ptr %8) #13
  %12 = load ptr, ptr %5, align 8, !tbaa !9
  %13 = getelementptr inbounds nuw %struct.archive_write, ptr %12, i32 0, i32 15
  %14 = load ptr, ptr %13, align 8, !tbaa !120
  store ptr %14, ptr %8, align 8, !tbaa !22
  call void @llvm.lifetime.start.p0(i64 8, ptr %9) #13
  call void @llvm.lifetime.start.p0(i64 8, ptr %10) #13
  %15 = load ptr, ptr %6, align 8, !tbaa !153
  store ptr %15, ptr %10, align 8, !tbaa !133
  br label %16

16:                                               ; preds = %33, %3
  %17 = load i64, ptr %7, align 8, !tbaa !154
  %18 = icmp ne i64 %17, 0
  br i1 %18, label %19, label %40

19:                                               ; preds = %16
  %20 = load ptr, ptr %8, align 8, !tbaa !22
  %21 = getelementptr inbounds nuw %struct.iso9660, ptr %20, i32 0, i32 1
  %22 = load i32, ptr %21, align 8, !tbaa !42
  %23 = load ptr, ptr %10, align 8, !tbaa !133
  %24 = load i64, ptr %7, align 8, !tbaa !154
  %25 = call i64 @write(i32 noundef %22, ptr noundef %23, i64 noundef %24)
  store i64 %25, ptr %9, align 8, !tbaa !154
  %26 = load i64, ptr %9, align 8, !tbaa !154
  %27 = icmp slt i64 %26, 0
  br i1 %27, label %28, label %33

28:                                               ; preds = %19
  %29 = load ptr, ptr %5, align 8, !tbaa !9
  %30 = getelementptr inbounds nuw %struct.archive_write, ptr %29, i32 0, i32 0
  %31 = call ptr @__errno_location() #16
  %32 = load i32, ptr %31, align 4, !tbaa !11
  call void (ptr, i32, ptr, ...) @archive_set_error(ptr noundef %30, i32 noundef %32, ptr noundef @.str.58)
  store i32 -30, ptr %4, align 4
  store i32 1, ptr %11, align 4
  br label %41

33:                                               ; preds = %19
  %34 = load i64, ptr %9, align 8, !tbaa !154
  %35 = load i64, ptr %7, align 8, !tbaa !154
  %36 = sub i64 %35, %34
  store i64 %36, ptr %7, align 8, !tbaa !154
  %37 = load i64, ptr %9, align 8, !tbaa !154
  %38 = load ptr, ptr %10, align 8, !tbaa !133
  %39 = getelementptr inbounds i8, ptr %38, i64 %37
  store ptr %39, ptr %10, align 8, !tbaa !133
  br label %16, !llvm.loop !247

40:                                               ; preds = %16
  store i32 0, ptr %4, align 4
  store i32 1, ptr %11, align 4
  br label %41

41:                                               ; preds = %40, %28
  call void @llvm.lifetime.end.p0(i64 8, ptr %10) #13
  call void @llvm.lifetime.end.p0(i64 8, ptr %9) #13
  call void @llvm.lifetime.end.p0(i64 8, ptr %8) #13
  %42 = load i32, ptr %4, align 4
  ret i32 %42
}

; Function Attrs: nounwind uwtable
define internal i32 @wb_write_to_temp(ptr noundef %0, ptr noundef %1, i64 noundef %2) #0 {
  %4 = alloca i32, align 4
  %5 = alloca ptr, align 8
  %6 = alloca ptr, align 8
  %7 = alloca i64, align 8
  %8 = alloca ptr, align 8
  %9 = alloca i64, align 8
  %10 = alloca ptr, align 8
  %11 = alloca i32, align 4
  %12 = alloca i64, align 8
  store ptr %0, ptr %5, align 8, !tbaa !9
  store ptr %1, ptr %6, align 8, !tbaa !153
  store i64 %2, ptr %7, align 8, !tbaa !154
  call void @llvm.lifetime.start.p0(i64 8, ptr %8) #13
  %13 = load ptr, ptr %6, align 8, !tbaa !153
  store ptr %13, ptr %8, align 8, !tbaa !133
  call void @llvm.lifetime.start.p0(i64 8, ptr %9) #13
  %14 = load i64, ptr %7, align 8, !tbaa !154
  store i64 %14, ptr %9, align 8, !tbaa !154
  %15 = load ptr, ptr %5, align 8, !tbaa !9
  %16 = getelementptr inbounds nuw %struct.archive_write, ptr %15, i32 0, i32 15
  %17 = load ptr, ptr %16, align 8, !tbaa !120
  %18 = getelementptr inbounds nuw %struct.iso9660, ptr %17, i32 0, i32 31
  %19 = load i64, ptr %18, align 8, !tbaa !53
  %20 = icmp eq i64 %19, 65536
  br i1 %20, label %21, label %58

21:                                               ; preds = %3
  %22 = load i64, ptr %7, align 8, !tbaa !154
  %23 = icmp ugt i64 %22, 16384
  br i1 %23, label %24, label %58

24:                                               ; preds = %21
  call void @llvm.lifetime.start.p0(i64 8, ptr %10) #13
  %25 = load ptr, ptr %5, align 8, !tbaa !9
  %26 = getelementptr inbounds nuw %struct.archive_write, ptr %25, i32 0, i32 15
  %27 = load ptr, ptr %26, align 8, !tbaa !120
  store ptr %27, ptr %10, align 8, !tbaa !22
  %28 = load i64, ptr %7, align 8, !tbaa !154
  %29 = urem i64 %28, 2048
  store i64 %29, ptr %9, align 8, !tbaa !154
  %30 = load i64, ptr %7, align 8, !tbaa !154
  %31 = load i64, ptr %9, align 8, !tbaa !154
  %32 = sub i64 %30, %31
  %33 = load ptr, ptr %10, align 8, !tbaa !22
  %34 = getelementptr inbounds nuw %struct.iso9660, ptr %33, i32 0, i32 33
  %35 = load i64, ptr %34, align 8, !tbaa !55
  %36 = add i64 %35, %32
  store i64 %36, ptr %34, align 8, !tbaa !55
  %37 = load ptr, ptr %5, align 8, !tbaa !9
  %38 = load ptr, ptr %6, align 8, !tbaa !153
  %39 = load i64, ptr %7, align 8, !tbaa !154
  %40 = load i64, ptr %9, align 8, !tbaa !154
  %41 = sub i64 %39, %40
  %42 = call i32 @write_to_temp(ptr noundef %37, ptr noundef %38, i64 noundef %41)
  %43 = icmp ne i32 %42, 0
  br i1 %43, label %44, label %45

44:                                               ; preds = %24
  store i32 -30, ptr %4, align 4
  store i32 1, ptr %11, align 4
  br label %55

45:                                               ; preds = %24
  %46 = load i64, ptr %9, align 8, !tbaa !154
  %47 = icmp eq i64 %46, 0
  br i1 %47, label %48, label %49

48:                                               ; preds = %45
  store i32 0, ptr %4, align 4
  store i32 1, ptr %11, align 4
  br label %55

49:                                               ; preds = %45
  %50 = load i64, ptr %7, align 8, !tbaa !154
  %51 = load i64, ptr %9, align 8, !tbaa !154
  %52 = sub i64 %50, %51
  %53 = load ptr, ptr %8, align 8, !tbaa !133
  %54 = getelementptr inbounds nuw i8, ptr %53, i64 %52
  store ptr %54, ptr %8, align 8, !tbaa !133
  store i32 0, ptr %11, align 4
  br label %55

55:                                               ; preds = %49, %48, %44
  call void @llvm.lifetime.end.p0(i64 8, ptr %10) #13
  %56 = load i32, ptr %11, align 4
  switch i32 %56, label %98 [
    i32 0, label %57
  ]

57:                                               ; preds = %55
  br label %58

58:                                               ; preds = %57, %21, %3
  br label %59

59:                                               ; preds = %96, %58
  %60 = load i64, ptr %9, align 8, !tbaa !154
  %61 = icmp ne i64 %60, 0
  br i1 %61, label %62, label %97

62:                                               ; preds = %59
  call void @llvm.lifetime.start.p0(i64 8, ptr %12) #13
  %63 = load i64, ptr %9, align 8, !tbaa !154
  store i64 %63, ptr %12, align 8, !tbaa !154
  %64 = load i64, ptr %12, align 8, !tbaa !154
  %65 = load ptr, ptr %5, align 8, !tbaa !9
  %66 = getelementptr inbounds nuw %struct.archive_write, ptr %65, i32 0, i32 15
  %67 = load ptr, ptr %66, align 8, !tbaa !120
  %68 = getelementptr inbounds nuw %struct.iso9660, ptr %67, i32 0, i32 31
  %69 = load i64, ptr %68, align 8, !tbaa !53
  %70 = icmp ugt i64 %64, %69
  br i1 %70, label %71, label %77

71:                                               ; preds = %62
  %72 = load ptr, ptr %5, align 8, !tbaa !9
  %73 = getelementptr inbounds nuw %struct.archive_write, ptr %72, i32 0, i32 15
  %74 = load ptr, ptr %73, align 8, !tbaa !120
  %75 = getelementptr inbounds nuw %struct.iso9660, ptr %74, i32 0, i32 31
  %76 = load i64, ptr %75, align 8, !tbaa !53
  store i64 %76, ptr %12, align 8, !tbaa !154
  br label %77

77:                                               ; preds = %71, %62
  %78 = load ptr, ptr %5, align 8, !tbaa !9
  %79 = call ptr @wb_buffptr(ptr noundef %78)
  %80 = load ptr, ptr %8, align 8, !tbaa !133
  %81 = load i64, ptr %12, align 8, !tbaa !154
  call void @llvm.memcpy.p0.p0.i64(ptr align 1 %79, ptr align 1 %80, i64 %81, i1 false)
  %82 = load ptr, ptr %5, align 8, !tbaa !9
  %83 = load i64, ptr %12, align 8, !tbaa !154
  %84 = call i32 @wb_consume(ptr noundef %82, i64 noundef %83)
  %85 = icmp ne i32 %84, 0
  br i1 %85, label %86, label %87

86:                                               ; preds = %77
  store i32 -30, ptr %4, align 4
  store i32 1, ptr %11, align 4
  br label %94

87:                                               ; preds = %77
  %88 = load i64, ptr %12, align 8, !tbaa !154
  %89 = load i64, ptr %9, align 8, !tbaa !154
  %90 = sub i64 %89, %88
  store i64 %90, ptr %9, align 8, !tbaa !154
  %91 = load i64, ptr %12, align 8, !tbaa !154
  %92 = load ptr, ptr %8, align 8, !tbaa !133
  %93 = getelementptr inbounds nuw i8, ptr %92, i64 %91
  store ptr %93, ptr %8, align 8, !tbaa !133
  store i32 0, ptr %11, align 4
  br label %94

94:                                               ; preds = %87, %86
  call void @llvm.lifetime.end.p0(i64 8, ptr %12) #13
  %95 = load i32, ptr %11, align 4
  switch i32 %95, label %98 [
    i32 0, label %96
  ]

96:                                               ; preds = %94
  br label %59, !llvm.loop !261

97:                                               ; preds = %59
  store i32 0, ptr %4, align 4
  store i32 1, ptr %11, align 4
  br label %98

98:                                               ; preds = %97, %94, %55
  call void @llvm.lifetime.end.p0(i64 8, ptr %9) #13
  call void @llvm.lifetime.end.p0(i64 8, ptr %8) #13
  %99 = load i32, ptr %4, align 4
  ret i32 %99
}