; Function Attrs: nounwind uwtable
define internal fastcc range(i32 -30, 1) i32 @wb_write_to_temp(ptr noundef %0, ptr noundef readonly captures(none) %1, i64 noundef %2) unnamed_addr #0 {
  %4 = getelementptr inbounds nuw i8, ptr %0, i64 248
  %5 = load ptr, ptr %4, align 8, !tbaa !69
  %6 = getelementptr inbounds nuw i8, ptr %5, i64 66272
  %7 = load i64, ptr %6, align 8, !tbaa !50
  %8 = icmp eq i64 %7, 65536
  %9 = icmp ugt i64 %2, 16384
  %or.cond = and i1 %9, %8
  br i1 %or.cond, label %.lr.ph.i, label %29

.lr.ph.i:                                         ; preds = %3
  %10 = and i64 %2, 2047
  %11 = and i64 %2, -2048
  %12 = getelementptr inbounds nuw i8, ptr %5, i64 66288
  %13 = load i64, ptr %12, align 8, !tbaa !108
  %14 = add i64 %13, %11
  store i64 %14, ptr %12, align 8, !tbaa !108
  %15 = getelementptr inbounds nuw i8, ptr %5, i64 8
  br label %16

16:                                               ; preds = %20, %.lr.ph.i
  %.017.i = phi ptr [ %1, %.lr.ph.i ], [ %22, %20 ]
  %.01316.i = phi i64 [ %11, %.lr.ph.i ], [ %21, %20 ]
  %17 = load i32, ptr %15, align 8, !tbaa !35
  %18 = tail call i64 @write(i32 noundef %17, ptr noundef %.017.i, i64 noundef %.01316.i) #23
  %19 = icmp slt i64 %18, 0
  br i1 %19, label %write_to_temp.exit, label %20

20:                                               ; preds = %16
  %21 = sub i64 %.01316.i, %18
  %22 = getelementptr inbounds nuw i8, ptr %.017.i, i64 %18
  %.not.i = icmp eq i64 %21, 0
  br i1 %.not.i, label %25, label %16, !llvm.loop !216

write_to_temp.exit:                               ; preds = %16
  %23 = tail call ptr @__errno_location() #26
  %24 = load i32, ptr %23, align 4, !tbaa !101
  tail call void (ptr, i32, ptr, ...) @archive_set_error(ptr noundef %0, i32 noundef %24, ptr noundef nonnull @.str.58) #23
  br label %.thread

25:                                               ; preds = %20
  %26 = icmp eq i64 %10, 0
  br i1 %26, label %.thread, label %27

27:                                               ; preds = %25
  %28 = getelementptr inbounds nuw i8, ptr %1, i64 %11
  br label %29

29:                                               ; preds = %27, %3
  %.041 = phi ptr [ %28, %27 ], [ %1, %3 ]
  %.038 = phi i64 [ %10, %27 ], [ %2, %3 ]
  %.not4759 = icmp eq i64 %.038, 0
  br i1 %.not4759, label %.thread, label %.lr.ph

.lr.ph:                                           ; preds = %29, %.backedge
  %.13961 = phi i64 [ %.139.be, %.backedge ], [ %.038, %29 ]
  %.24360 = phi ptr [ %.243.be, %.backedge ], [ %.041, %29 ]
  %30 = load ptr, ptr %4, align 8, !tbaa !69
  %31 = getelementptr inbounds nuw i8, ptr %30, i64 66272
  %32 = load i64, ptr %31, align 8, !tbaa !50
  %spec.select = tail call i64 @llvm.umin.i64(i64 %.13961, i64 %32)
  %33 = getelementptr inbounds nuw i8, ptr %30, i64 732
  %34 = sub i64 65536, %32
  %35 = getelementptr inbounds nuw [65536 x i8], ptr %33, i64 0, i64 %34
  tail call void @llvm.memcpy.p0.p0.i64(ptr nonnull align 1 %35, ptr align 1 %.24360, i64 %spec.select, i1 false)
  %36 = load ptr, ptr %4, align 8, !tbaa !69
  %37 = getelementptr inbounds nuw i8, ptr %36, i64 66272
  %38 = load i64, ptr %37, align 8, !tbaa !50
  %39 = icmp ugt i64 %spec.select, %38
  %40 = icmp eq i64 %38, 0
  %or.cond.i = or i1 %39, %40
  br i1 %or.cond.i, label %wb_consume.exit.thread, label %41

wb_consume.exit.thread:                           ; preds = %.lr.ph
  tail call void (ptr, i32, ptr, ...) @archive_set_error(ptr noundef nonnull %0, i32 noundef -1, ptr noundef nonnull @.str.57, i64 noundef %spec.select, i64 noundef %38) #23
  br label %.thread

41:                                               ; preds = %.lr.ph
  %42 = sub nuw i64 %38, %spec.select
  store i64 %42, ptr %37, align 8, !tbaa !50
  %43 = icmp ult i64 %42, 2048
  br i1 %43, label %44, label %.backedge

44:                                               ; preds = %41
  %45 = tail call fastcc i32 @wb_write_out(ptr noundef nonnull %0)
  %46 = icmp eq i32 %45, 0
  br i1 %46, label %.backedge, label %.thread

.backedge:                                        ; preds = %41, %44
  %.139.be = sub i64 %.13961, %spec.select
  %.243.be = getelementptr inbounds nuw i8, ptr %.24360, i64 %spec.select
  %.not47 = icmp eq i64 %.139.be, 0
  br i1 %.not47, label %.thread, label %.lr.ph, !llvm.loop !118

.thread:                                          ; preds = %44, %.backedge, %29, %25, %write_to_temp.exit, %wb_consume.exit.thread
  %.2 = phi i32 [ -30, %wb_consume.exit.thread ], [ 0, %25 ], [ -30, %write_to_temp.exit ], [ 0, %29 ], [ 0, %.backedge ], [ -30, %44 ]
  ret i32 %.2
}